
12_STOPWATCH.elf:     file format elf32-avr

Sections:
Idx Name          Size      VMA       LMA       File off  Algn
  0 .data         0000000c  00800100  00000216  000002aa  2**0
                  CONTENTS, ALLOC, LOAD, DATA
  1 .text         00000216  00000000  00000000  00000094  2**1
                  CONTENTS, ALLOC, LOAD, READONLY, CODE
  2 .bss          00000004  0080010c  0080010c  000002b6  2**0
                  ALLOC
  3 .comment      00000030  00000000  00000000  000002b6  2**0
                  CONTENTS, READONLY
  4 .debug_aranges 00000030  00000000  00000000  000002e6  2**0
                  CONTENTS, READONLY, DEBUGGING
  5 .debug_info   000001bb  00000000  00000000  00000316  2**0
                  CONTENTS, READONLY, DEBUGGING
  6 .debug_abbrev 00000110  00000000  00000000  000004d1  2**0
                  CONTENTS, READONLY, DEBUGGING
  7 .debug_line   00000279  00000000  00000000  000005e1  2**0
                  CONTENTS, READONLY, DEBUGGING
  8 .debug_frame  00000064  00000000  00000000  0000085c  2**2
                  CONTENTS, READONLY, DEBUGGING
  9 .debug_str    000001cd  00000000  00000000  000008c0  2**0
                  CONTENTS, READONLY, DEBUGGING
 10 .debug_loc    00000078  00000000  00000000  00000a8d  2**0
                  CONTENTS, READONLY, DEBUGGING
 11 .debug_ranges 00000020  00000000  00000000  00000b05  2**0
                  CONTENTS, READONLY, DEBUGGING

Disassembly of section .text:

00000000 <__vectors>:
   0:	45 c0       	rjmp	.+138    	; 0x8c <__ctors_end>
   2:	00 00       	nop
   4:	60 c0       	rjmp	.+192    	; 0xc6 <__bad_interrupt>
   6:	00 00       	nop
   8:	5e c0       	rjmp	.+188    	; 0xc6 <__bad_interrupt>
   a:	00 00       	nop
   c:	5c c0       	rjmp	.+184    	; 0xc6 <__bad_interrupt>
   e:	00 00       	nop
  10:	5a c0       	rjmp	.+180    	; 0xc6 <__bad_interrupt>
  12:	00 00       	nop
  14:	59 c0       	rjmp	.+178    	; 0xc8 <__vector_5>
  16:	00 00       	nop
  18:	71 c0       	rjmp	.+226    	; 0xfc <__vector_6>
  1a:	00 00       	nop
  1c:	54 c0       	rjmp	.+168    	; 0xc6 <__bad_interrupt>
  1e:	00 00       	nop
  20:	52 c0       	rjmp	.+164    	; 0xc6 <__bad_interrupt>
  22:	00 00       	nop
  24:	50 c0       	rjmp	.+160    	; 0xc6 <__bad_interrupt>
  26:	00 00       	nop
  28:	4e c0       	rjmp	.+156    	; 0xc6 <__bad_interrupt>
  2a:	00 00       	nop
  2c:	4c c0       	rjmp	.+152    	; 0xc6 <__bad_interrupt>
  2e:	00 00       	nop
  30:	4a c0       	rjmp	.+148    	; 0xc6 <__bad_interrupt>
  32:	00 00       	nop
  34:	48 c0       	rjmp	.+144    	; 0xc6 <__bad_interrupt>
  36:	00 00       	nop
  38:	46 c0       	rjmp	.+140    	; 0xc6 <__bad_interrupt>
  3a:	00 00       	nop
  3c:	44 c0       	rjmp	.+136    	; 0xc6 <__bad_interrupt>
  3e:	00 00       	nop
  40:	42 c0       	rjmp	.+132    	; 0xc6 <__bad_interrupt>
  42:	00 00       	nop
  44:	40 c0       	rjmp	.+128    	; 0xc6 <__bad_interrupt>
  46:	00 00       	nop
  48:	3e c0       	rjmp	.+124    	; 0xc6 <__bad_interrupt>
  4a:	00 00       	nop
  4c:	3c c0       	rjmp	.+120    	; 0xc6 <__bad_interrupt>
  4e:	00 00       	nop
  50:	3a c0       	rjmp	.+116    	; 0xc6 <__bad_interrupt>
  52:	00 00       	nop
  54:	38 c0       	rjmp	.+112    	; 0xc6 <__bad_interrupt>
  56:	00 00       	nop
  58:	36 c0       	rjmp	.+108    	; 0xc6 <__bad_interrupt>
  5a:	00 00       	nop
  5c:	34 c0       	rjmp	.+104    	; 0xc6 <__bad_interrupt>
  5e:	00 00       	nop
  60:	32 c0       	rjmp	.+100    	; 0xc6 <__bad_interrupt>
  62:	00 00       	nop
  64:	30 c0       	rjmp	.+96     	; 0xc6 <__bad_interrupt>
  66:	00 00       	nop
  68:	2e c0       	rjmp	.+92     	; 0xc6 <__bad_interrupt>
  6a:	00 00       	nop
  6c:	2c c0       	rjmp	.+88     	; 0xc6 <__bad_interrupt>
  6e:	00 00       	nop
  70:	2a c0       	rjmp	.+84     	; 0xc6 <__bad_interrupt>
  72:	00 00       	nop
  74:	28 c0       	rjmp	.+80     	; 0xc6 <__bad_interrupt>
  76:	00 00       	nop
  78:	26 c0       	rjmp	.+76     	; 0xc6 <__bad_interrupt>
  7a:	00 00       	nop
  7c:	24 c0       	rjmp	.+72     	; 0xc6 <__bad_interrupt>
  7e:	00 00       	nop
  80:	22 c0       	rjmp	.+68     	; 0xc6 <__bad_interrupt>
  82:	00 00       	nop
  84:	20 c0       	rjmp	.+64     	; 0xc6 <__bad_interrupt>
  86:	00 00       	nop
  88:	1e c0       	rjmp	.+60     	; 0xc6 <__bad_interrupt>
	...

0000008c <__ctors_end>:
  8c:	11 24       	eor	r1, r1
  8e:	1f be       	out	0x3f, r1	; 63
  90:	cf ef       	ldi	r28, 0xFF	; 255
  92:	d0 e1       	ldi	r29, 0x10	; 16
  94:	de bf       	out	0x3e, r29	; 62
  96:	cd bf       	out	0x3d, r28	; 61

00000098 <__do_copy_data>:
  98:	11 e0       	ldi	r17, 0x01	; 1
  9a:	a0 e0       	ldi	r26, 0x00	; 0
  9c:	b1 e0       	ldi	r27, 0x01	; 1
  9e:	e6 e1       	ldi	r30, 0x16	; 22
  a0:	f2 e0       	ldi	r31, 0x02	; 2
  a2:	00 e0       	ldi	r16, 0x00	; 0
  a4:	0b bf       	out	0x3b, r16	; 59
  a6:	02 c0       	rjmp	.+4      	; 0xac <__do_copy_data+0x14>
  a8:	07 90       	elpm	r0, Z+
  aa:	0d 92       	st	X+, r0
  ac:	ac 30       	cpi	r26, 0x0C	; 12
  ae:	b1 07       	cpc	r27, r17
  b0:	d9 f7       	brne	.-10     	; 0xa8 <__do_copy_data+0x10>

000000b2 <__do_clear_bss>:
  b2:	21 e0       	ldi	r18, 0x01	; 1
  b4:	ac e0       	ldi	r26, 0x0C	; 12
  b6:	b1 e0       	ldi	r27, 0x01	; 1
  b8:	01 c0       	rjmp	.+2      	; 0xbc <.do_clear_bss_start>

000000ba <.do_clear_bss_loop>:
  ba:	1d 92       	st	X+, r1

000000bc <.do_clear_bss_start>:
  bc:	a0 31       	cpi	r26, 0x10	; 16
  be:	b2 07       	cpc	r27, r18
  c0:	e1 f7       	brne	.-8      	; 0xba <.do_clear_bss_loop>
  c2:	36 d0       	rcall	.+108    	; 0x130 <main>
  c4:	a6 c0       	rjmp	.+332    	; 0x212 <_exit>

000000c6 <__bad_interrupt>:
  c6:	9c cf       	rjmp	.-200    	; 0x0 <__vectors>

000000c8 <__vector_5>:

unsigned char SEG[10]={0xc0,0xf9,0xa4,0xb0,0x99,0x92,0x82,0xf8,0x80,0x90};
unsigned char time_10ms=0, time_100ms=0, time_1s=0, time_10s=0;
unsigned char time_stop=1;

ISR(INT4_vect){
  c8:	1f 92       	push	r1
  ca:	0f 92       	push	r0
  cc:	0f b6       	in	r0, 0x3f	; 63
  ce:	0f 92       	push	r0
  d0:	11 24       	eor	r1, r1
  d2:	8f 93       	push	r24
	SREG=0x70;
  d4:	80 e7       	ldi	r24, 0x70	; 112
  d6:	8f bf       	out	0x3f, r24	; 63
	if(time_stop==0) time_stop=1;
  d8:	80 91 00 01 	lds	r24, 0x0100
  dc:	81 11       	cpse	r24, r1
  de:	04 c0       	rjmp	.+8      	; 0xe8 <__vector_5+0x20>
  e0:	81 e0       	ldi	r24, 0x01	; 1
  e2:	80 93 00 01 	sts	0x0100, r24
  e6:	02 c0       	rjmp	.+4      	; 0xec <__vector_5+0x24>
	else time_stop=0;
  e8:	10 92 00 01 	sts	0x0100, r1
	SREG=0x80;
  ec:	80 e8       	ldi	r24, 0x80	; 128
  ee:	8f bf       	out	0x3f, r24	; 63
}
  f0:	8f 91       	pop	r24
  f2:	0f 90       	pop	r0
  f4:	0f be       	out	0x3f, r0	; 63
  f6:	0f 90       	pop	r0
  f8:	1f 90       	pop	r1
  fa:	18 95       	reti

000000fc <__vector_6>:
ISR(INT5_vect){
  fc:	1f 92       	push	r1
  fe:	0f 92       	push	r0
 100:	0f b6       	in	r0, 0x3f	; 63
 102:	0f 92       	push	r0
 104:	11 24       	eor	r1, r1
 106:	8f 93       	push	r24
	SREG=0x70; time_10ms=0; time_100ms=0;
 108:	80 e7       	ldi	r24, 0x70	; 112
 10a:	8f bf       	out	0x3f, r24	; 63
 10c:	10 92 0f 01 	sts	0x010F, r1
 110:	10 92 0e 01 	sts	0x010E, r1
	time_1s=0; time_10s=0; PORTC=0xff;
 114:	10 92 0d 01 	sts	0x010D, r1
 118:	10 92 0c 01 	sts	0x010C, r1
 11c:	8f ef       	ldi	r24, 0xFF	; 255
 11e:	85 bb       	out	0x15, r24	; 21
	SREG=0x80;
 120:	80 e8       	ldi	r24, 0x80	; 128
 122:	8f bf       	out	0x3f, r24	; 63
}
 124:	8f 91       	pop	r24
 126:	0f 90       	pop	r0
 128:	0f be       	out	0x3f, r0	; 63
 12a:	0f 90       	pop	r0
 12c:	1f 90       	pop	r1
 12e:	18 95       	reti

00000130 <main>:
int main(void)
{
	DDRA=0xff;
 130:	8f ef       	ldi	r24, 0xFF	; 255
 132:	8a bb       	out	0x1a, r24	; 26
	DDRB=0xff;
 134:	87 bb       	out	0x17, r24	; 23
	DDRC=0xff;
 136:	84 bb       	out	0x14, r24	; 20
	DDRE=0x00;
 138:	12 b8       	out	0x02, r1	; 2
	PORTE=0xf0;
 13a:	80 ef       	ldi	r24, 0xF0	; 240
 13c:	83 b9       	out	0x03, r24	; 3
	EIMSK=0b11110000;
 13e:	89 bf       	out	0x39, r24	; 57
	EICRB=0b10101010;
 140:	9a ea       	ldi	r25, 0xAA	; 170
 142:	9a bf       	out	0x3a, r25	; 58
	PORTB=0xf0;
 144:	88 bb       	out	0x18, r24	; 24
	PORTC=0xf8;
 146:	88 ef       	ldi	r24, 0xF8	; 248
 148:	85 bb       	out	0x15, r24	; 21
	time_stop=1;
 14a:	81 e0       	ldi	r24, 0x01	; 1
 14c:	80 93 00 01 	sts	0x0100, r24
		if(time_stop==1) continue;
		time_10ms++;
		if(time_10ms==10){
			time_10ms=0;
			time_100ms++;
			PORTC^=(1<<PORTC0);
 150:	71 e0       	ldi	r23, 0x01	; 1
		}
		if(time_100ms==10){
			time_100ms=0;
			time_1s++;
			PORTC^=(1<<PORTC1);
 152:	62 e0       	ldi	r22, 0x02	; 2
	PORTC=0xf8;
	time_stop=1;
	
    while(1)
    {
        PORTB=0xfe;
 154:	4e ef       	ldi	r20, 0xFE	; 254
		PORTA=SEG[time_10ms];
		PORTB=0xfd;
 156:	3d ef       	ldi	r19, 0xFD	; 253
		PORTA=SEG[time_100ms];
		PORTB=0xfb;
 158:	2b ef       	ldi	r18, 0xFB	; 251
		PORTA=SEG[time_1s];
		PORTB=0xf7;
 15a:	97 ef       	ldi	r25, 0xF7	; 247
			PORTC^=(1<<PORTC1);
		}
		if(time_1s==10){
			time_1s=0;
			time_10s++;
			PORTC^=(1<<PORTC2);
 15c:	54 e0       	ldi	r21, 0x04	; 4
	PORTC=0xf8;
	time_stop=1;
	
    while(1)
    {
        PORTB=0xfe;
 15e:	48 bb       	out	0x18, r20	; 24
		PORTA=SEG[time_10ms];
 160:	e0 91 0f 01 	lds	r30, 0x010F
 164:	f0 e0       	ldi	r31, 0x00	; 0
 166:	ef 5f       	subi	r30, 0xFF	; 255
 168:	fe 4f       	sbci	r31, 0xFE	; 254
 16a:	80 81       	ld	r24, Z
 16c:	8b bb       	out	0x1b, r24	; 27
		PORTB=0xfd;
 16e:	38 bb       	out	0x18, r19	; 24
		PORTA=SEG[time_100ms];
 170:	e0 91 0e 01 	lds	r30, 0x010E
 174:	f0 e0       	ldi	r31, 0x00	; 0
 176:	ef 5f       	subi	r30, 0xFF	; 255
 178:	fe 4f       	sbci	r31, 0xFE	; 254
 17a:	80 81       	ld	r24, Z
 17c:	8b bb       	out	0x1b, r24	; 27
		PORTB=0xfb;
 17e:	28 bb       	out	0x18, r18	; 24
		PORTA=SEG[time_1s];
 180:	e0 91 0d 01 	lds	r30, 0x010D
 184:	f0 e0       	ldi	r31, 0x00	; 0
 186:	ef 5f       	subi	r30, 0xFF	; 255
 188:	fe 4f       	sbci	r31, 0xFE	; 254
 18a:	80 81       	ld	r24, Z
 18c:	8b bb       	out	0x1b, r24	; 27
		PORTB=0xf7;
 18e:	98 bb       	out	0x18, r25	; 24
		PORTA=SEG[time_10s];
 190:	e0 91 0c 01 	lds	r30, 0x010C
 194:	f0 e0       	ldi	r31, 0x00	; 0
 196:	ef 5f       	subi	r30, 0xFF	; 255
 198:	fe 4f       	sbci	r31, 0xFE	; 254
 19a:	80 81       	ld	r24, Z
 19c:	8b bb       	out	0x1b, r24	; 27
	#else
		//round up by default
		__ticks_dc = (uint32_t)(ceil(fabs(__tmp)));
	#endif

	__builtin_avr_delay_cycles(__ticks_dc);
 19e:	ec ec       	ldi	r30, 0xCC	; 204
 1a0:	fc e1       	ldi	r31, 0x1C	; 28
 1a2:	31 97       	sbiw	r30, 0x01	; 1
 1a4:	f1 f7       	brne	.-4      	; 0x1a2 <main+0x72>
 1a6:	00 c0       	rjmp	.+0      	; 0x1a8 <main+0x78>
 1a8:	00 00       	nop
		_delay_ms(2);
		if(time_stop==1) continue;
 1aa:	80 91 00 01 	lds	r24, 0x0100
 1ae:	81 30       	cpi	r24, 0x01	; 1
 1b0:	b1 f2       	breq	.-84     	; 0x15e <main+0x2e>
		time_10ms++;
 1b2:	80 91 0f 01 	lds	r24, 0x010F
 1b6:	8f 5f       	subi	r24, 0xFF	; 255
		if(time_10ms==10){
 1b8:	8a 30       	cpi	r24, 0x0A	; 10
 1ba:	19 f0       	breq	.+6      	; 0x1c2 <main+0x92>
		PORTA=SEG[time_1s];
		PORTB=0xf7;
		PORTA=SEG[time_10s];
		_delay_ms(2);
		if(time_stop==1) continue;
		time_10ms++;
 1bc:	80 93 0f 01 	sts	0x010F, r24
 1c0:	0a c0       	rjmp	.+20     	; 0x1d6 <main+0xa6>
		if(time_10ms==10){
			time_10ms=0;
 1c2:	10 92 0f 01 	sts	0x010F, r1
			time_100ms++;
 1c6:	80 91 0e 01 	lds	r24, 0x010E
 1ca:	8f 5f       	subi	r24, 0xFF	; 255
 1cc:	80 93 0e 01 	sts	0x010E, r24
			PORTC^=(1<<PORTC0);
 1d0:	85 b3       	in	r24, 0x15	; 21
 1d2:	87 27       	eor	r24, r23
 1d4:	85 bb       	out	0x15, r24	; 21
		}
		if(time_100ms==10){
 1d6:	80 91 0e 01 	lds	r24, 0x010E
 1da:	8a 30       	cpi	r24, 0x0A	; 10
 1dc:	51 f4       	brne	.+20     	; 0x1f2 <main+0xc2>
			time_100ms=0;
 1de:	10 92 0e 01 	sts	0x010E, r1
			time_1s++;
 1e2:	80 91 0d 01 	lds	r24, 0x010D
 1e6:	8f 5f       	subi	r24, 0xFF	; 255
 1e8:	80 93 0d 01 	sts	0x010D, r24
			PORTC^=(1<<PORTC1);
 1ec:	85 b3       	in	r24, 0x15	; 21
 1ee:	86 27       	eor	r24, r22
 1f0:	85 bb       	out	0x15, r24	; 21
		}
		if(time_1s==10){
 1f2:	80 91 0d 01 	lds	r24, 0x010D
 1f6:	8a 30       	cpi	r24, 0x0A	; 10
 1f8:	09 f0       	breq	.+2      	; 0x1fc <main+0xcc>
 1fa:	b1 cf       	rjmp	.-158    	; 0x15e <main+0x2e>
			time_1s=0;
 1fc:	10 92 0d 01 	sts	0x010D, r1
			time_10s++;
 200:	80 91 0c 01 	lds	r24, 0x010C
 204:	8f 5f       	subi	r24, 0xFF	; 255
 206:	80 93 0c 01 	sts	0x010C, r24
			PORTC^=(1<<PORTC2);
 20a:	85 b3       	in	r24, 0x15	; 21
 20c:	85 27       	eor	r24, r21
 20e:	85 bb       	out	0x15, r24	; 21
 210:	a6 cf       	rjmp	.-180    	; 0x15e <main+0x2e>

00000212 <_exit>:
 212:	f8 94       	cli

00000214 <__stop_program>:
 214:	ff cf       	rjmp	.-2      	; 0x214 <__stop_program>
